target datalayout = "e-m:e-p270:32:32-p271:32:32-p272:64:64-i64:64-i128:128-f80:128-n8:16:32:64-S128"
target triple = "x86_64-pc-linux-gnu"

%struct.altsvcinfo = type { ptr, %struct.Curl_llist, i64 }
%struct.Curl_llist = type { ptr, ptr, ptr, i64 }
%struct.altsvc = type { %struct.althost, %struct.althost, i64, i8, i32, %struct.Curl_llist_node }
%struct.althost = type { ptr, i16, i32 }
%struct.Curl_llist_node = type { ptr, ptr, ptr, ptr }

@Curl_cfree = external global ptr, align 8

; Function Attrs: nounwind uwtable
define internal void @altsvc_free(ptr noundef %0) #0 {
  %2 = alloca ptr, align 8
  store ptr %0, ptr %2, align 8, !tbaa !29
  %3 = load ptr, ptr @Curl_cfree, align 8, !tbaa !7
  %4 = load ptr, ptr %2, align 8, !tbaa !29
  %5 = getelementptr inbounds nuw %struct.altsvc, ptr %4, i32 0, i32 0
  %6 = getelementptr inbounds nuw %struct.althost, ptr %5, i32 0, i32 0
  %7 = load ptr, ptr %6, align 8, !tbaa !32
  call void %3(ptr noundef %7)
  %8 = load ptr, ptr @Curl_cfree, align 8, !tbaa !7
  %9 = load ptr, ptr %2, align 8, !tbaa !29
  %10 = getelementptr inbounds nuw %struct.altsvc, ptr %9, i32 0, i32 1
  %11 = getelementptr inbounds nuw %struct.althost, ptr %10, i32 0, i32 0
  %12 = load ptr, ptr %11, align 8, !tbaa !39
  call void %8(ptr noundef %12)
  %13 = load ptr, ptr @Curl_cfree, align 8, !tbaa !7
  %14 = load ptr, ptr %2, align 8, !tbaa !29
  call void %13(ptr noundef %14)
  ret void
}

; Function Attrs: nounwind uwtable
define internal zeroext i1 @hostcompare(ptr noundef %0, ptr noundef %1) #0 {
  %3 = alloca i1, align 1
  %4 = alloca ptr, align 8
  %5 = alloca ptr, align 8
  %6 = alloca i64, align 8
  %7 = alloca i64, align 8
  %8 = alloca i32, align 4
  store ptr %0, ptr %4, align 8, !tbaa !17
  store ptr %1, ptr %5, align 8, !tbaa !17
  call void @llvm.lifetime.start.p0(i64 8, ptr %6) #7
  %9 = load ptr, ptr %4, align 8, !tbaa !17
  %10 = call i64 @strlen(ptr noundef %9) #8
  store i64 %10, ptr %6, align 8, !tbaa !25
  call void @llvm.lifetime.start.p0(i64 8, ptr %7) #7
  %11 = load ptr, ptr %5, align 8, !tbaa !17
  %12 = call i64 @strlen(ptr noundef %11) #8
  store i64 %12, ptr %7, align 8, !tbaa !25
  %13 = load i64, ptr %6, align 8, !tbaa !25
  %14 = icmp ne i64 %13, 0
  br i1 %14, label %15, label %26

15:                                               ; preds = %2
  %16 = load ptr, ptr %4, align 8, !tbaa !17
  %17 = load i64, ptr %6, align 8, !tbaa !25
  %18 = sub i64 %17, 1
  %19 = getelementptr inbounds nuw i8, ptr %16, i64 %18
  %20 = load i8, ptr %19, align 1, !tbaa !21
  %21 = sext i8 %20 to i32
  %22 = icmp eq i32 %21, 46
  br i1 %22, label %23, label %26

23:                                               ; preds = %15
  %24 = load i64, ptr %6, align 8, !tbaa !25
  %25 = add i64 %24, -1
  store i64 %25, ptr %6, align 8, !tbaa !25
  br label %26

26:                                               ; preds = %23, %15, %2
  %27 = load i64, ptr %6, align 8, !tbaa !25
  %28 = load i64, ptr %7, align 8, !tbaa !25
  %29 = icmp ne i64 %27, %28
  br i1 %29, label %30, label %31

30:                                               ; preds = %26
  store i1 false, ptr %3, align 1
  store i32 1, ptr %8, align 4
  br label %37

31:                                               ; preds = %26
  %32 = load ptr, ptr %4, align 8, !tbaa !17
  %33 = load ptr, ptr %5, align 8, !tbaa !17
  %34 = load i64, ptr %6, align 8, !tbaa !25
  %35 = call i32 @curl_strnequal(ptr noundef %32, ptr noundef %33, i64 noundef %34)
  %36 = icmp ne i32 %35, 0
  store i1 %36, ptr %3, align 1
  store i32 1, ptr %8, align 4
  br label %37

37:                                               ; preds = %31, %30
  call void @llvm.lifetime.end.p0(i64 8, ptr %7) #7
  call void @llvm.lifetime.end.p0(i64 8, ptr %6) #7
  %38 = load i1, ptr %3, align 1
  ret i1 %38
}

; Function Attrs: nounwind uwtable
define internal void @altsvc_flush(ptr noundef %0, i32 noundef %1, ptr noundef %2, i16 noundef zeroext %3) #0 {
  %5 = alloca ptr, align 8
  %6 = alloca i32, align 4
  %7 = alloca ptr, align 8
  %8 = alloca i16, align 2
  %9 = alloca ptr, align 8
  %10 = alloca ptr, align 8
  %11 = alloca ptr, align 8
  store ptr %0, ptr %5, align 8, !tbaa !9
  store i32 %1, ptr %6, align 4, !tbaa !3
  store ptr %2, ptr %7, align 8, !tbaa !17
  store i16 %3, ptr %8, align 2, !tbaa !59
  call void @llvm.lifetime.start.p0(i64 8, ptr %9) #7
  call void @llvm.lifetime.start.p0(i64 8, ptr %10) #7
  %12 = load ptr, ptr %5, align 8, !tbaa !9
  %13 = getelementptr inbounds nuw %struct.altsvcinfo, ptr %12, i32 0, i32 1
  %14 = call ptr @Curl_llist_head(ptr noundef %13)
  store ptr %14, ptr %9, align 8, !tbaa !28
  br label %15

15:                                               ; preds = %49, %4
  %16 = load ptr, ptr %9, align 8, !tbaa !28
  %17 = icmp ne ptr %16, null
  br i1 %17, label %18, label %51

18:                                               ; preds = %15
  call void @llvm.lifetime.start.p0(i64 8, ptr %11) #7
  %19 = load ptr, ptr %9, align 8, !tbaa !28
  %20 = call ptr @Curl_node_elem(ptr noundef %19)
  store ptr %20, ptr %11, align 8, !tbaa !29
  %21 = load ptr, ptr %9, align 8, !tbaa !28
  %22 = call ptr @Curl_node_next(ptr noundef %21)
  store ptr %22, ptr %10, align 8, !tbaa !28
  %23 = load i32, ptr %6, align 4, !tbaa !3
  %24 = load ptr, ptr %11, align 8, !tbaa !29
  %25 = getelementptr inbounds nuw %struct.altsvc, ptr %24, i32 0, i32 0
  %26 = getelementptr inbounds nuw %struct.althost, ptr %25, i32 0, i32 2
  %27 = load i32, ptr %26, align 4, !tbaa !44
  %28 = icmp eq i32 %23, %27
  br i1 %28, label %29, label %48

29:                                               ; preds = %18
  %30 = load i16, ptr %8, align 2, !tbaa !59
  %31 = zext i16 %30 to i32
  %32 = load ptr, ptr %11, align 8, !tbaa !29
  %33 = getelementptr inbounds nuw %struct.altsvc, ptr %32, i32 0, i32 0
  %34 = getelementptr inbounds nuw %struct.althost, ptr %33, i32 0, i32 1
  %35 = load i16, ptr %34, align 8, !tbaa !45
  %36 = zext i16 %35 to i32
  %37 = icmp eq i32 %31, %36
  br i1 %37, label %38, label %48

38:                                               ; preds = %29
  %39 = load ptr, ptr %7, align 8, !tbaa !17
  %40 = load ptr, ptr %11, align 8, !tbaa !29
  %41 = getelementptr inbounds nuw %struct.altsvc, ptr %40, i32 0, i32 0
  %42 = getelementptr inbounds nuw %struct.althost, ptr %41, i32 0, i32 0
  %43 = load ptr, ptr %42, align 8, !tbaa !32
  %44 = call zeroext i1 @hostcompare(ptr noundef %39, ptr noundef %43)
  br i1 %44, label %45, label %48

45:                                               ; preds = %38
  %46 = load ptr, ptr %9, align 8, !tbaa !28
  call void @Curl_node_remove(ptr noundef %46)
  %47 = load ptr, ptr %11, align 8, !tbaa !29
  call void @altsvc_free(ptr noundef %47)
  br label %48

48:                                               ; preds = %45, %38, %29, %18
  call void @llvm.lifetime.end.p0(i64 8, ptr %11) #7
  br label %49

49:                                               ; preds = %48
  %50 = load ptr, ptr %10, align 8, !tbaa !28
  store ptr %50, ptr %9, align 8, !tbaa !28
  br label %15, !llvm.loop !133

51:                                               ; preds = %15
  call void @llvm.lifetime.end.p0(i64 8, ptr %10) #7
  call void @llvm.lifetime.end.p0(i64 8, ptr %9) #7
  ret void
}