; Function Attrs: nounwind uwtable
define internal fastcc void @altsvc_flush(ptr noundef %0, i32 noundef %1, ptr noundef %2, i16 noundef zeroext %3) unnamed_addr #1 {
  %5 = getelementptr inbounds nuw i8, ptr %0, i64 8
  %6 = tail call ptr @Curl_llist_head(ptr noundef nonnull %5) #12
  %invariant.gep = getelementptr i8, ptr %2, i64 -1
  %.not14 = icmp eq ptr %6, null
  br i1 %.not14, label %._crit_edge, label %.lr.ph

.lr.ph:                                           ; preds = %4, %hostcompare.exit.thread
  %.015 = phi ptr [ %8, %hostcompare.exit.thread ], [ %6, %4 ]
  %7 = tail call ptr @Curl_node_elem(ptr noundef nonnull %.015) #12
  %8 = tail call ptr @Curl_node_next(ptr noundef nonnull %.015) #12
  %9 = getelementptr inbounds nuw i8, ptr %7, i64 12
  %10 = load i32, ptr %9, align 4, !tbaa !39
  %11 = icmp eq i32 %1, %10
  br i1 %11, label %12, label %hostcompare.exit.thread

12:                                               ; preds = %.lr.ph
  %13 = getelementptr inbounds nuw i8, ptr %7, i64 8
  %14 = load i16, ptr %13, align 8, !tbaa !40
  %15 = icmp eq i16 %3, %14
  br i1 %15, label %16, label %hostcompare.exit.thread

16:                                               ; preds = %12
  %17 = load ptr, ptr %7, align 8, !tbaa !34
  %18 = tail call i64 @strlen(ptr noundef nonnull dereferenceable(1) %2) #13
  %19 = tail call i64 @strlen(ptr noundef nonnull dereferenceable(1) %17) #13
  %.not.i = icmp eq i64 %18, 0
  br i1 %.not.i, label %24, label %20

20:                                               ; preds = %16
  %gep = getelementptr i8, ptr %invariant.gep, i64 %18
  %21 = load i8, ptr %gep, align 1, !tbaa !14
  %22 = icmp eq i8 %21, 46
  %23 = sext i1 %22 to i64
  %spec.select.i = add i64 %18, %23
  br label %24

24:                                               ; preds = %20, %16
  %.011.i = phi i64 [ 0, %16 ], [ %spec.select.i, %20 ]
  %.not13.i = icmp eq i64 %.011.i, %19
  br i1 %.not13.i, label %hostcompare.exit, label %hostcompare.exit.thread

hostcompare.exit:                                 ; preds = %24
  %25 = tail call i32 @curl_strnequal(ptr noundef nonnull %2, ptr noundef nonnull %17, i64 noundef %19) #12
  %.not13 = icmp eq i32 %25, 0
  br i1 %.not13, label %hostcompare.exit.thread, label %26

26:                                               ; preds = %hostcompare.exit
  tail call void @Curl_node_remove(ptr noundef nonnull %.015) #12
  %27 = load ptr, ptr @Curl_cfree, align 8, !tbaa !3
  %28 = load ptr, ptr %7, align 8, !tbaa !34
  tail call void %27(ptr noundef %28) #12
  %29 = load ptr, ptr @Curl_cfree, align 8, !tbaa !3
  %30 = getelementptr inbounds nuw i8, ptr %7, i64 16
  %31 = load ptr, ptr %30, align 8, !tbaa !35
  tail call void %29(ptr noundef %31) #12
  %32 = load ptr, ptr @Curl_cfree, align 8, !tbaa !3
  tail call void %32(ptr noundef nonnull %7) #12
  br label %hostcompare.exit.thread

hostcompare.exit.thread:                          ; preds = %24, %26, %hostcompare.exit, %12, %.lr.ph
  %.not = icmp eq ptr %8, null
  br i1 %.not, label %._crit_edge, label %.lr.ph, !llvm.loop !121

._crit_edge:                                      ; preds = %hostcompare.exit.thread, %4
  ret void
}